; Function Attrs: mustprogress nounwind uwtable
define hidden { i32, ptr } @_ZN4llvh3sys2fs8is_localEiRb(i32 noundef %FD, ptr nocapture noundef nonnull writeonly align 1 dereferenceable(1) %Result) local_unnamed_addr #0 {
entry:
  %Vfs = alloca %struct.statfs, align 8
  %call = call i32 @fstatfs(i32 noundef %FD, ptr noundef nonnull %Vfs) #29
  %tobool.not = icmp eq i32 %call, 0
  br i1 %tobool.not, label %if.end, label %if.then

if.then:                                          ; preds = %entry
  %call1 = tail call ptr @__errno_location() #30
  %0 = load i32, ptr %call1, align 4
  %call2 = tail call noundef nonnull align 8 dereferenceable(8) ptr @_ZNSt3_V216generic_categoryEv() #30
  br label %return

if.end:                                           ; preds = %entry
  %Vfs.val = load i64, ptr %Vfs, align 8
  %conv.i = trunc i64 %Vfs.val to i32
  switch i32 %conv.i, label %sw.default.i [
    i32 26985, label %_ZN4llvh3sys2fsL13is_local_implER6statfs.exit
    i32 20859, label %_ZN4llvh3sys2fsL13is_local_implER6statfs.exit
    i32 -11317950, label %_ZN4llvh3sys2fsL13is_local_implER6statfs.exit
  ]

sw.default.i:                                     ; preds = %if.end
  br label %_ZN4llvh3sys2fsL13is_local_implER6statfs.exit

_ZN4llvh3sys2fsL13is_local_implER6statfs.exit:    ; preds = %if.end, %if.end, %if.end, %sw.default.i
  %retval.0.i = phi i8 [ 1, %sw.default.i ], [ 0, %if.end ], [ 0, %if.end ], [ 0, %if.end ]
  store i8 %retval.0.i, ptr %Result, align 1
  %call.i = tail call noundef nonnull align 8 dereferenceable(8) ptr @_ZNSt3_V215system_categoryEv() #30
  br label %return

return:                                           ; preds = %_ZN4llvh3sys2fsL13is_local_implER6statfs.exit, %if.then
  %retval.sroa.3.0 = phi ptr [ %call.i, %_ZN4llvh3sys2fsL13is_local_implER6statfs.exit ], [ %call2, %if.then ]
  %retval.sroa.0.0 = phi i32 [ 0, %_ZN4llvh3sys2fsL13is_local_implER6statfs.exit ], [ %0, %if.then ]
  %.fca.0.insert = insertvalue { i32, ptr } poison, i32 %retval.sroa.0.0, 0
  %.fca.1.insert = insertvalue { i32, ptr } %.fca.0.insert, ptr %retval.sroa.3.0, 1
  ret { i32, ptr } %.fca.1.insert
}